; Function Attrs: mustprogress uwtable
define noundef nonnull align 8 dereferenceable(24) ptr @_ZN5boost4json6string6assignEPKcm(ptr noundef nonnull returned align 8 dereferenceable(24) %0, ptr nocapture noundef readonly %1, i64 noundef %2) local_unnamed_addr #5 align 2 {
  %4 = getelementptr inbounds nuw i8, ptr %0, i64 8
  %5 = tail call noundef ptr @_ZN5boost4json6detail11string_impl6assignEmRKNS0_11storage_ptrE(ptr noundef nonnull align 8 dereferenceable(16) %4, i64 noundef %2, ptr noundef nonnull align 8 dereferenceable(8) %0)
  %6 = icmp eq i64 %2, 0
  br i1 %6, label %_ZNSt11char_traitsIcE4copyEPcPKcm.exit, label %7

7:                                                ; preds = %3
  tail call void @llvm.memcpy.p0.p0.i64(ptr align 1 %5, ptr align 1 %1, i64 %2, i1 false)
  br label %_ZNSt11char_traitsIcE4copyEPcPKcm.exit

_ZNSt11char_traitsIcE4copyEPcPKcm.exit:           ; preds = %3, %7
  ret ptr %0
}